; Function Attrs: mustprogress uwtable
define dso_local noundef nonnull align 8 dereferenceable(112) ptr @_ZNK7testing10TestResult17GetTestPartResultEi(ptr noundef nonnull readonly align 8 captures(none) dereferenceable(128) %0, i32 noundef %1) local_unnamed_addr #3 align 2 {
  %3 = icmp slt i32 %1, 0
  br i1 %3, label %14, label %4

4:                                                ; preds = %2
  %5 = getelementptr inbounds nuw i8, ptr %0, i64 56
  %6 = getelementptr inbounds nuw i8, ptr %0, i64 64
  %7 = load ptr, ptr %6, align 8, !tbaa !549
  %8 = load ptr, ptr %5, align 8, !tbaa !551
  %9 = ptrtoint ptr %7 to i64
  %10 = ptrtoint ptr %8 to i64
  %11 = sub i64 %9, %10
  %12 = sdiv exact i64 %11, 112
  %13 = trunc i64 %12 to i32
  %.not = icmp slt i32 %1, %13
  br i1 %.not, label %15, label %14

14:                                               ; preds = %4, %2
  tail call void @_ZN7testing8internal5posix5AbortEv() #59
  unreachable

15:                                               ; preds = %4
  %16 = zext nneg i32 %1 to i64
  %.not.i.i = icmp ugt i64 %12, %16
  br i1 %.not.i.i, label %_ZNKSt6vectorIN7testing14TestPartResultESaIS1_EE2atEm.exit, label %17

17:                                               ; preds = %15
  tail call void (ptr, ...) @_ZSt24__throw_out_of_range_fmtPKcz(ptr noundef nonnull @.str.549, i64 noundef %16, i64 noundef %12) #59
  unreachable

_ZNKSt6vectorIN7testing14TestPartResultESaIS1_EE2atEm.exit: ; preds = %15
  %18 = getelementptr inbounds nuw %"class.testing::TestPartResult", ptr %8, i64 %16
  ret ptr %18
}